; Function Attrs: nounwind uwtable
define void @Aig_ManRegPartitionTraverse_rec(ptr noundef readonly captures(none) %0, ptr noundef %1, ptr noundef captures(none) %2) local_unnamed_addr #0 {
  %4 = getelementptr i8, ptr %0, i64 312
  %.val2434 = load i32, ptr %4, align 8, !tbaa !65
  %5 = getelementptr i8, ptr %1, i64 32
  %.val2535 = load i32, ptr %5, align 8, !tbaa !66
  %.not36 = icmp eq i32 %.val2535, %.val2434
  br i1 %.not36, label %.loopexit, label %.lr.ph

.lr.ph:                                           ; preds = %3, %tailrecurse
  %6 = phi ptr [ %58, %tailrecurse ], [ %5, %3 ]
  %.val2438 = phi i32 [ %.val24, %tailrecurse ], [ %.val2434, %3 ]
  %.tr3137 = phi ptr [ %57, %tailrecurse ], [ %1, %3 ]
  store i32 %.val2438, ptr %6, align 8, !tbaa !66
  %7 = getelementptr i8, ptr %.tr3137, i64 24
  %.val29 = load i64, ptr %7, align 8
  %8 = and i64 %.val29, 7
  %.not30 = icmp eq i64 %8, 2
  br i1 %.not30, label %9, label %tailrecurse

9:                                                ; preds = %.lr.ph
  %10 = getelementptr inbounds nuw i8, ptr %.tr3137, i64 40
  %11 = load i32, ptr %10, align 8, !tbaa !52
  %12 = getelementptr i8, ptr %0, i64 136
  %.val23 = load i32, ptr %12, align 8, !tbaa !53
  %13 = getelementptr i8, ptr %0, i64 104
  %.val21 = load i32, ptr %13, align 8, !tbaa !35
  %14 = sub nsw i32 %.val23, %.val21
  %.not20 = icmp slt i32 %11, %14
  br i1 %.not20, label %.loopexit, label %15

15:                                               ; preds = %9
  %16 = getelementptr inbounds nuw i8, ptr %2, i64 4
  %17 = load i32, ptr %16, align 4, !tbaa !16
  %18 = load i32, ptr %2, align 8, !tbaa !18
  %19 = icmp eq i32 %17, %18
  br i1 %19, label %20, label %.Vec_PtrGrow.exit11_crit_edge.i

.Vec_PtrGrow.exit11_crit_edge.i:                  ; preds = %15
  %.phi.trans.insert.i = getelementptr inbounds nuw i8, ptr %2, i64 8
  %.pre.i = load ptr, ptr %.phi.trans.insert.i, align 8, !tbaa !19
  br label %Vec_PtrPush.exit

20:                                               ; preds = %15
  %21 = icmp slt i32 %17, 16
  br i1 %21, label %22, label %30

22:                                               ; preds = %20
  %23 = getelementptr inbounds nuw i8, ptr %2, i64 8
  %24 = load ptr, ptr %23, align 8, !tbaa !19
  %.not9.i.i = icmp eq ptr %24, null
  br i1 %.not9.i.i, label %27, label %25

25:                                               ; preds = %22
  %26 = tail call dereferenceable_or_null(128) ptr @realloc(ptr noundef nonnull %24, i64 noundef 128) #14
  br label %Vec_PtrGrow.exit.i

27:                                               ; preds = %22
  %28 = tail call noalias dereferenceable_or_null(128) ptr @malloc(i64 noundef 128) #13
  br label %Vec_PtrGrow.exit.i

Vec_PtrGrow.exit.i:                               ; preds = %27, %25
  %29 = phi ptr [ %26, %25 ], [ %28, %27 ]
  store ptr %29, ptr %23, align 8, !tbaa !19
  store i32 16, ptr %2, align 8, !tbaa !18
  br label %Vec_PtrPush.exit

30:                                               ; preds = %20
  %31 = shl nuw nsw i32 %17, 1
  %32 = getelementptr inbounds nuw i8, ptr %2, i64 8
  %33 = load ptr, ptr %32, align 8, !tbaa !19
  %.not9.i10.i = icmp eq ptr %33, null
  %34 = zext nneg i32 %31 to i64
  %35 = shl nuw nsw i64 %34, 3
  br i1 %.not9.i10.i, label %38, label %36

36:                                               ; preds = %30
  %37 = tail call ptr @realloc(ptr noundef nonnull %33, i64 noundef %35) #14
  br label %40

38:                                               ; preds = %30
  %39 = tail call noalias ptr @malloc(i64 noundef %35) #13
  br label %40

40:                                               ; preds = %38, %36
  %41 = phi ptr [ %37, %36 ], [ %39, %38 ]
  store ptr %41, ptr %32, align 8, !tbaa !19
  store i32 %31, ptr %2, align 8, !tbaa !18
  br label %Vec_PtrPush.exit

Vec_PtrPush.exit:                                 ; preds = %.Vec_PtrGrow.exit11_crit_edge.i, %Vec_PtrGrow.exit.i, %40
  %42 = phi ptr [ %.pre.i, %.Vec_PtrGrow.exit11_crit_edge.i ], [ %41, %40 ], [ %29, %Vec_PtrGrow.exit.i ]
  %43 = load i32, ptr %16, align 4, !tbaa !16
  %44 = add nsw i32 %43, 1
  store i32 %44, ptr %16, align 4, !tbaa !16
  %45 = sext i32 %43 to i64
  %46 = getelementptr inbounds ptr, ptr %42, i64 %45
  store ptr %.tr3137, ptr %46, align 8, !tbaa !49
  %47 = load i32, ptr %10, align 8, !tbaa !52
  %.val22 = load i32, ptr %12, align 8, !tbaa !53
  %.val = load i32, ptr %13, align 8, !tbaa !35
  %.neg = sub i32 %47, %.val22
  %48 = add i32 %.neg, %.val
  %49 = tail call i32 (ptr, ...) @printf(ptr noundef nonnull dereferenceable(1) @.str.1, i32 noundef %48)
  br label %.loopexit

tailrecurse:                                      ; preds = %.lr.ph
  %50 = getelementptr i8, ptr %.tr3137, i64 8
  %.val26 = load ptr, ptr %50, align 8, !tbaa !72
  %51 = ptrtoint ptr %.val26 to i64
  %52 = and i64 %51, -2
  %53 = inttoptr i64 %52 to ptr
  tail call void @Aig_ManRegPartitionTraverse_rec(ptr noundef nonnull %0, ptr noundef %53, ptr noundef %2)
  %54 = getelementptr i8, ptr %.tr3137, i64 16
  %.val28 = load ptr, ptr %54, align 8, !tbaa !80
  %55 = ptrtoint ptr %.val28 to i64
  %56 = and i64 %55, -2
  %57 = inttoptr i64 %56 to ptr
  %.val24 = load i32, ptr %4, align 8, !tbaa !65
  %58 = getelementptr i8, ptr %57, i64 32
  %.val25 = load i32, ptr %58, align 8, !tbaa !66
  %.not = icmp eq i32 %.val25, %.val24
  br i1 %.not, label %.loopexit, label %.lr.ph

.loopexit:                                        ; preds = %tailrecurse, %3, %9, %Vec_PtrPush.exit
  ret void
}